(dp1
S'test'
p2
(lp3
(lp4
(lp5
a(lp6
a(lp7
a(lp8
a(lp9
a(lp10
a(lp11
a(lp12
a(lp13
aa(lp14
(lp15
a(lp16
a(lp17
a(lp18
a(lp19
a(lp20
a(lp21
a(lp22
a(lp23
aasS'cccs'
p24
(lp25
(lp26
(lp27
a(lp28
a(lp29
a(lp30
a(lp31
a(lp32
a(lp33
a(lp34
a(lp35
aa(lp36
(lp37
a(lp38
a(lp39
a(lp40
a(lp41
a(lp42
a(lp43
a(lp44
a(lp45
aasS'gs'
p46
(lp47
(lp48
a(lp49
asS'dev'
p50
(lp51
(lp52
(lp53
a(lp54
a(lp55
a(lp56
a(lp57
a(lp58
a(lp59
a(lp60
a(lp61
aa(lp62
(lp63
a(lp64
a(lp65
a(lp66
a(lp67
a(lp68
a(lp69
a(lp70
a(lp71
aas.