(dp1
S'cccs'
p2
(lp3
(lp4
(lp5
a(lp6
a(lp7
a(lp8
a(lp9
a(lp10
a(lp11
a(lp12
a(lp13
a(lp14
a(lp15
a(lp16
aa(lp17
(lp18
a(lp19
a(lp20
a(lp21
a(lp22
a(lp23
a(lp24
a(lp25
a(lp26
a(lp27
a(lp28
a(lp29
aasS'gsdev'
p30
(lp31
(lp32
a(lp33
asS'dev'
p34
(lp35
(lp36
(lp37
a(lp38
a(lp39
a(lp40
a(lp41
a(lp42
a(lp43
a(lp44
a(lp45
a(lp46
a(lp47
a(lp48
aa(lp49
(lp50
a(lp51
a(lp52
a(lp53
a(lp54
a(lp55
a(lp56
a(lp57
a(lp58
a(lp59
a(lp60
a(lp61
aasS'gstest'
p62
(lp63
(lp64
a(lp65
asS'gstrain'
p66
(lp67
(lp68
a(lp69
asS'test'
p70
(lp71
(lp72
(lp73
a(lp74
a(lp75
a(lp76
a(lp77
a(lp78
a(lp79
a(lp80
a(lp81
a(lp82
a(lp83
a(lp84
aa(lp85
(lp86
a(lp87
a(lp88
a(lp89
a(lp90
a(lp91
a(lp92
a(lp93
a(lp94
a(lp95
a(lp96
a(lp97
aas.